; ModuleID = 'source-C-CXX/26/2153.c'
source_filename = "source-C-CXX/26/2153.c"
target datalayout = "e-m:e-p270:32:32-p271:32:32-p272:64:64-i64:64-f80:128-n8:16:32:64-S128"
target triple = "x86_64-pc-linux-gnu"

@.str = private unnamed_addr constant [3 x i8] c"%d\00", align 1
@.str.1 = private unnamed_addr constant [9 x i8] c"%f %f %f\00", align 1
@.str.2 = private unnamed_addr constant [19 x i8] c"x1=%.5lf;x2=%.5lf\0A\00", align 1
@.str.4 = private unnamed_addr constant [13 x i8] c"x1=x2=%.5lf\0A\00", align 1
@.str.5 = private unnamed_addr constant [33 x i8] c"x1=%.5lf+%.5lfi;x2=%.5lf-%.5lfi\0A\00", align 1
@str = private unnamed_addr constant [14 x i8] c"x1=x2=0.00000\00", align 1

; Function Attrs: nofree nounwind sspstrong uwtable
define dso_local i32 @main() local_unnamed_addr #0 {
  %1 = alloca i32, align 4
  %2 = alloca float, align 4
  %3 = alloca float, align 4
  %4 = alloca float, align 4
  %5 = bitcast i32* %1 to i8*
  call void @llvm.lifetime.start.p0i8(i64 4, i8* nonnull %5) #5
  %6 = bitcast float* %2 to i8*
  call void @llvm.lifetime.start.p0i8(i64 4, i8* nonnull %6) #5
  %7 = bitcast float* %3 to i8*
  call void @llvm.lifetime.start.p0i8(i64 4, i8* nonnull %7) #5
  %8 = bitcast float* %4 to i8*
  call void @llvm.lifetime.start.p0i8(i64 4, i8* nonnull %8) #5
  %9 = call i32 (i8*, ...) @__isoc99_scanf(i8* getelementptr inbounds ([3 x i8], [3 x i8]* @.str, i64 0, i64 0), i32* nonnull %1)
  %10 = load i32, i32* %1, align 4, !tbaa !5
  %11 = icmp slt i32 %10, 1
  br i1 %11, label %76, label %12

12:                                               ; preds = %0, %72
  %13 = phi i32 [ %73, %72 ], [ 1, %0 ]
  %14 = call i32 (i8*, ...) @__isoc99_scanf(i8* getelementptr inbounds ([9 x i8], [9 x i8]* @.str.1, i64 0, i64 0), float* nonnull %2, float* nonnull %3, float* nonnull %4)
  %15 = load float, float* %3, align 4, !tbaa !9
  %16 = fmul float %15, %15
  %17 = load float, float* %2, align 4, !tbaa !9
  %18 = fmul float %17, 4.000000e+00
  %19 = load float, float* %4, align 4, !tbaa !9
  %20 = fmul float %18, %19
  %21 = fsub float %16, %20
  %22 = fcmp ogt float %21, 0.000000e+00
  br i1 %22, label %23, label %49

23:                                               ; preds = %12
  %24 = fneg float %15
  %25 = fpext float %24 to double
  %26 = fpext float %21 to double
  %27 = call double @sqrt(double %26) #5
  %28 = fadd double %27, %25
  %29 = load float, float* %2, align 4, !tbaa !9
  %30 = fmul float %29, 2.000000e+00
  %31 = fpext float %30 to double
  %32 = fdiv double %28, %31
  %33 = load float, float* %3, align 4, !tbaa !9
  %34 = fneg float %33
  %35 = fpext float %34 to double
  %36 = fmul float %33, %33
  %37 = fmul float %29, 4.000000e+00
  %38 = load float, float* %4, align 4, !tbaa !9
  %39 = fmul float %37, %38
  %40 = fsub float %36, %39
  %41 = fpext float %40 to double
  %42 = call double @sqrt(double %41) #5
  %43 = fsub double %35, %42
  %44 = load float, float* %2, align 4, !tbaa !9
  %45 = fmul float %44, 2.000000e+00
  %46 = fpext float %45 to double
  %47 = fdiv double %43, %46
  %48 = call i32 (i8*, ...) @printf(i8* nonnull dereferenceable(1) getelementptr inbounds ([19 x i8], [19 x i8]* @.str.2, i64 0, i64 0), double %32, double %47)
  br label %72

49:                                               ; preds = %12
  %50 = fcmp oeq float %21, 0.000000e+00
  %51 = fneg float %15
  %52 = fmul float %17, 2.000000e+00
  %53 = fdiv float %51, %52
  %54 = fcmp oeq float %53, 0.000000e+00
  br i1 %50, label %55, label %61

55:                                               ; preds = %49
  br i1 %54, label %56, label %58

56:                                               ; preds = %55
  %57 = call i32 @puts(i8* nonnull dereferenceable(1) getelementptr inbounds ([14 x i8], [14 x i8]* @str, i64 0, i64 0))
  br label %72

58:                                               ; preds = %55
  %59 = fpext float %53 to double
  %60 = call i32 (i8*, ...) @printf(i8* nonnull dereferenceable(1) getelementptr inbounds ([13 x i8], [13 x i8]* @.str.4, i64 0, i64 0), double %59)
  br label %72

61:                                               ; preds = %49
  %62 = fpext float %53 to double
  %63 = select i1 %54, double 0.000000e+00, double %62
  %64 = fsub float %20, %16
  %65 = fpext float %64 to double
  %66 = call double @sqrt(double %65) #5
  %67 = load float, float* %2, align 4, !tbaa !9
  %68 = fmul float %67, 2.000000e+00
  %69 = fpext float %68 to double
  %70 = fdiv double %66, %69
  %71 = call i32 (i8*, ...) @printf(i8* nonnull dereferenceable(1) getelementptr inbounds ([33 x i8], [33 x i8]* @.str.5, i64 0, i64 0), double %63, double %70, double %63, double %70)
  br label %72

72:                                               ; preds = %23, %56, %58, %61
  %73 = add nuw nsw i32 %13, 1
  %74 = load i32, i32* %1, align 4, !tbaa !5
  %75 = icmp slt i32 %13, %74
  br i1 %75, label %12, label %76, !llvm.loop !11

76:                                               ; preds = %72, %0
  call void @llvm.lifetime.end.p0i8(i64 4, i8* nonnull %8) #5
  call void @llvm.lifetime.end.p0i8(i64 4, i8* nonnull %7) #5
  call void @llvm.lifetime.end.p0i8(i64 4, i8* nonnull %6) #5
  call void @llvm.lifetime.end.p0i8(i64 4, i8* nonnull %5) #5
  ret i32 0
}

; Function Attrs: argmemonly mustprogress nofree nosync nounwind willreturn
declare void @llvm.lifetime.start.p0i8(i64 immarg, i8* nocapture) #1

; Function Attrs: nofree nounwind
declare noundef i32 @__isoc99_scanf(i8* nocapture noundef readonly, ...) local_unnamed_addr #2

; Function Attrs: mustprogress nofree nounwind willreturn
declare double @sqrt(double) local_unnamed_addr #3

; Function Attrs: nofree nounwind
declare noundef i32 @printf(i8* nocapture noundef readonly, ...) local_unnamed_addr #2

; Function Attrs: argmemonly mustprogress nofree nosync nounwind willreturn
declare void @llvm.lifetime.end.p0i8(i64 immarg, i8* nocapture) #1

; Function Attrs: nofree nounwind
declare noundef i32 @puts(i8* nocapture noundef readonly) local_unnamed_addr #4


!llvm.module.flags = !{!0, !1, !2, !3}
!llvm.ident = !{!4}

!0 = !{i32 1, !"wchar_size", i32 4}
!1 = !{i32 7, !"PIC Level", i32 2}
!2 = !{i32 7, !"PIE Level", i32 2}
!3 = !{i32 7, !"uwtable", i32 1}
!4 = !{!"clang version 13.0.0"}
!5 = !{!6, !6, i64 0}
!6 = !{!"int", !7, i64 0}
!7 = !{!"omnipotent char", !8, i64 0}
!8 = !{!"Simple C/C++ TBAA"}
!9 = !{!10, !10, i64 0}
!10 = !{!"float", !7, i64 0}
!11 = distinct !{!11, !12}
!12 = !{!"llvm.loop.mustprogress"}
